; Function Attrs: mustprogress nounwind uwtable
define internal noundef i64 @_ZNK5faiss12_GLOBAL__N_110IVFScannerINS_22HammingComputerDefaultEE10scan_codesEmPKhPKlPfPlm(ptr noundef nonnull align 8 dereferenceable(152) %0, i64 noundef %1, ptr noundef %2, ptr nocapture noundef readonly %3, ptr nocapture noundef %4, ptr nocapture noundef %5, i64 noundef %6) unnamed_addr #0 align 2 {
  %.not24 = icmp eq i64 %1, 0
  br i1 %.not24, label %._crit_edge, label %.lr.ph

.lr.ph:                                           ; preds = %7
  %8 = getelementptr inbounds i8, ptr %0, i64 136
  %9 = getelementptr inbounds i8, ptr %0, i64 17
  %10 = getelementptr inbounds i8, ptr %0, i64 8
  %11 = getelementptr inbounds i8, ptr %4, i64 -4
  %12 = getelementptr inbounds i8, ptr %5, i64 -8
  %13 = icmp ult i64 %6, 2
  %.phi.trans.insert.i.i = getelementptr inbounds float, ptr %11, i64 %6
  %14 = getelementptr inbounds i8, ptr %0, i64 32
  br i1 %13, label %.lr.ph.split.us, label %.lr.ph.split

.lr.ph.split.us:                                  ; preds = %.lr.ph, %31
  %.023.us = phi ptr [ %33, %31 ], [ %2, %.lr.ph ]
  %.01722.us = phi i64 [ %.1.us, %31 ], [ 0, %.lr.ph ]
  %.01820.us = phi i64 [ %34, %31 ], [ 0, %.lr.ph ]
  %15 = tail call noundef i32 @_ZNK5faiss22HammingComputerDefault7hammingEPKh(ptr noundef nonnull align 8 dereferenceable(16) %8, ptr noundef %.023.us)
  %16 = sitofp i32 %15 to float
  %17 = load float, ptr %4, align 4
  %18 = fcmp ogt float %17, %16
  br i1 %18, label %19, label %31

19:                                               ; preds = %.lr.ph.split.us
  %20 = load i8, ptr %9, align 1
  %21 = and i8 %20, 1
  %.not.us = icmp eq i8 %21, 0
  br i1 %.not.us, label %26, label %22

22:                                               ; preds = %19
  %23 = load i64, ptr %10, align 8
  %24 = shl i64 %23, 32
  %25 = or i64 %24, %.01820.us
  br label %_ZN5faiss19maxheap_replace_topIfEEvmPT_PlS1_l.exit.us

26:                                               ; preds = %19
  %27 = getelementptr inbounds i64, ptr %3, i64 %.01820.us
  %28 = load i64, ptr %27, align 8
  br label %_ZN5faiss19maxheap_replace_topIfEEvmPT_PlS1_l.exit.us

_ZN5faiss19maxheap_replace_topIfEEvmPT_PlS1_l.exit.us: ; preds = %26, %22
  %29 = phi i64 [ %25, %22 ], [ %28, %26 ]
  store float %16, ptr %4, align 4
  store i64 %29, ptr %5, align 8
  %30 = add i64 %.01722.us, 1
  br label %31

31:                                               ; preds = %_ZN5faiss19maxheap_replace_topIfEEvmPT_PlS1_l.exit.us, %.lr.ph.split.us
  %.1.us = phi i64 [ %30, %_ZN5faiss19maxheap_replace_topIfEEvmPT_PlS1_l.exit.us ], [ %.01722.us, %.lr.ph.split.us ]
  %32 = load i64, ptr %14, align 8
  %33 = getelementptr inbounds i8, ptr %.023.us, i64 %32
  %34 = add nuw i64 %.01820.us, 1
  %exitcond26.not = icmp eq i64 %34, %1
  br i1 %exitcond26.not, label %._crit_edge, label %.lr.ph.split.us, !llvm.loop !39

.lr.ph.split:                                     ; preds = %.lr.ph, %88
  %.023 = phi ptr [ %90, %88 ], [ %2, %.lr.ph ]
  %.01722 = phi i64 [ %.1, %88 ], [ 0, %.lr.ph ]
  %.01820 = phi i64 [ %91, %88 ], [ 0, %.lr.ph ]
  %35 = tail call noundef i32 @_ZNK5faiss22HammingComputerDefault7hammingEPKh(ptr noundef nonnull align 8 dereferenceable(16) %8, ptr noundef %.023)
  %36 = sitofp i32 %35 to float
  %37 = load float, ptr %4, align 4
  %38 = fcmp ogt float %37, %36
  br i1 %38, label %39, label %88

39:                                               ; preds = %.lr.ph.split
  %40 = load i8, ptr %9, align 1
  %41 = and i8 %40, 1
  %.not = icmp eq i8 %41, 0
  br i1 %.not, label %46, label %42

42:                                               ; preds = %39
  %43 = load i64, ptr %10, align 8
  %44 = shl i64 %43, 32
  %45 = or i64 %44, %.01820
  br label %.lr.ph.preheader.i.i

46:                                               ; preds = %39
  %47 = getelementptr inbounds i64, ptr %3, i64 %.01820
  %48 = load i64, ptr %47, align 8
  br label %.lr.ph.preheader.i.i

.lr.ph.preheader.i.i:                             ; preds = %46, %42
  %49 = phi i64 [ %45, %42 ], [ %48, %46 ]
  br label %.lr.ph.i.i

.lr.ph.i.i:                                       ; preds = %78, %.lr.ph.preheader.i.i
  %50 = phi i64 [ %83, %78 ], [ 3, %.lr.ph.preheader.i.i ]
  %51 = phi i64 [ %82, %78 ], [ 2, %.lr.ph.preheader.i.i ]
  %.056.i.i = phi i64 [ %.1.i.i, %78 ], [ 1, %.lr.ph.preheader.i.i ]
  %52 = icmp eq i64 %51, %6
  br i1 %52, label %.lr.ph._ZN5faiss4CMaxIflE4cmp2Effll.exit.thread_crit_edge.i.i, label %53

.lr.ph._ZN5faiss4CMaxIflE4cmp2Effll.exit.thread_crit_edge.i.i: ; preds = %.lr.ph.i.i
  %.pre.i.i = load float, ptr %.phi.trans.insert.i.i, align 4
  br label %_ZN5faiss4CMaxIflE4cmp2Effll.exit.thread.i.i

53:                                               ; preds = %.lr.ph.i.i
  %54 = getelementptr inbounds float, ptr %11, i64 %51
  %55 = load float, ptr %54, align 4
  %56 = getelementptr inbounds float, ptr %11, i64 %50
  %57 = load float, ptr %56, align 4
  %58 = getelementptr inbounds i64, ptr %12, i64 %50
  %59 = load i64, ptr %58, align 8
  %60 = fcmp ogt float %55, %57
  br i1 %60, label %_ZN5faiss4CMaxIflE4cmp2Effll.exit.thread.i.i, label %_ZN5faiss4CMaxIflE4cmp2Effll.exit.i.i

_ZN5faiss4CMaxIflE4cmp2Effll.exit.i.i:            ; preds = %53
  %61 = getelementptr inbounds i64, ptr %12, i64 %51
  %62 = load i64, ptr %61, align 8
  %63 = fcmp oeq float %55, %57
  %64 = icmp sgt i64 %62, %59
  %65 = and i1 %63, %64
  br i1 %65, label %_ZN5faiss4CMaxIflE4cmp2Effll.exit.thread.i.i, label %73

_ZN5faiss4CMaxIflE4cmp2Effll.exit.thread.i.i:     ; preds = %_ZN5faiss4CMaxIflE4cmp2Effll.exit.i.i, %53, %.lr.ph._ZN5faiss4CMaxIflE4cmp2Effll.exit.thread_crit_edge.i.i
  %66 = phi float [ %.pre.i.i, %.lr.ph._ZN5faiss4CMaxIflE4cmp2Effll.exit.thread_crit_edge.i.i ], [ %55, %53 ], [ %55, %_ZN5faiss4CMaxIflE4cmp2Effll.exit.i.i ]
  %67 = fcmp olt float %66, %36
  br i1 %67, label %_ZN5faiss19maxheap_replace_topIfEEvmPT_PlS1_l.exit.loopexit, label %_ZN5faiss4CMaxIflE4cmp2Effll.exit54.i.i

_ZN5faiss4CMaxIflE4cmp2Effll.exit54.i.i:          ; preds = %_ZN5faiss4CMaxIflE4cmp2Effll.exit.thread.i.i
  %68 = getelementptr inbounds i64, ptr %12, i64 %51
  %69 = load i64, ptr %68, align 8
  %70 = fcmp oeq float %66, %36
  %71 = icmp slt i64 %69, %49
  %72 = and i1 %70, %71
  br i1 %72, label %_ZN5faiss19maxheap_replace_topIfEEvmPT_PlS1_l.exit.loopexit, label %78

73:                                               ; preds = %_ZN5faiss4CMaxIflE4cmp2Effll.exit.i.i
  %74 = fcmp olt float %57, %36
  br i1 %74, label %_ZN5faiss19maxheap_replace_topIfEEvmPT_PlS1_l.exit.loopexit, label %_ZN5faiss4CMaxIflE4cmp2Effll.exit55.i.i

_ZN5faiss4CMaxIflE4cmp2Effll.exit55.i.i:          ; preds = %73
  %75 = fcmp oeq float %57, %36
  %76 = icmp slt i64 %59, %49
  %77 = and i1 %75, %76
  br i1 %77, label %_ZN5faiss19maxheap_replace_topIfEEvmPT_PlS1_l.exit.loopexit, label %78

78:                                               ; preds = %_ZN5faiss4CMaxIflE4cmp2Effll.exit55.i.i, %_ZN5faiss4CMaxIflE4cmp2Effll.exit54.i.i
  %.sink.i.i = phi float [ %66, %_ZN5faiss4CMaxIflE4cmp2Effll.exit54.i.i ], [ %57, %_ZN5faiss4CMaxIflE4cmp2Effll.exit55.i.i ]
  %.sink63.i.i = phi ptr [ %68, %_ZN5faiss4CMaxIflE4cmp2Effll.exit54.i.i ], [ %58, %_ZN5faiss4CMaxIflE4cmp2Effll.exit55.i.i ]
  %.1.i.i = phi i64 [ %51, %_ZN5faiss4CMaxIflE4cmp2Effll.exit54.i.i ], [ %50, %_ZN5faiss4CMaxIflE4cmp2Effll.exit55.i.i ]
  %79 = getelementptr inbounds float, ptr %11, i64 %.056.i.i
  store float %.sink.i.i, ptr %79, align 4
  %80 = load i64, ptr %.sink63.i.i, align 8
  %81 = getelementptr inbounds i64, ptr %12, i64 %.056.i.i
  store i64 %80, ptr %81, align 8
  %82 = shl i64 %.1.i.i, 1
  %83 = or disjoint i64 %82, 1
  %84 = icmp ugt i64 %82, %6
  br i1 %84, label %_ZN5faiss19maxheap_replace_topIfEEvmPT_PlS1_l.exit.loopexit, label %.lr.ph.i.i, !llvm.loop !27

_ZN5faiss19maxheap_replace_topIfEEvmPT_PlS1_l.exit.loopexit: ; preds = %78, %_ZN5faiss4CMaxIflE4cmp2Effll.exit55.i.i, %73, %_ZN5faiss4CMaxIflE4cmp2Effll.exit54.i.i, %_ZN5faiss4CMaxIflE4cmp2Effll.exit.thread.i.i
  %.0.lcssa.i.i.ph = phi i64 [ %.056.i.i, %73 ], [ %.056.i.i, %_ZN5faiss4CMaxIflE4cmp2Effll.exit.thread.i.i ], [ %.056.i.i, %_ZN5faiss4CMaxIflE4cmp2Effll.exit55.i.i ], [ %.056.i.i, %_ZN5faiss4CMaxIflE4cmp2Effll.exit54.i.i ], [ %.1.i.i, %78 ]
  %85 = getelementptr inbounds float, ptr %11, i64 %.0.lcssa.i.i.ph
  store float %36, ptr %85, align 4
  %86 = getelementptr inbounds i64, ptr %12, i64 %.0.lcssa.i.i.ph
  store i64 %49, ptr %86, align 8
  %87 = add i64 %.01722, 1
  br label %88

88:                                               ; preds = %_ZN5faiss19maxheap_replace_topIfEEvmPT_PlS1_l.exit.loopexit, %.lr.ph.split
  %.1 = phi i64 [ %87, %_ZN5faiss19maxheap_replace_topIfEEvmPT_PlS1_l.exit.loopexit ], [ %.01722, %.lr.ph.split ]
  %89 = load i64, ptr %14, align 8
  %90 = getelementptr inbounds i8, ptr %.023, i64 %89
  %91 = add nuw i64 %.01820, 1
  %exitcond.not = icmp eq i64 %91, %1
  br i1 %exitcond.not, label %._crit_edge, label %.lr.ph.split, !llvm.loop !39

._crit_edge:                                      ; preds = %88, %31, %7
  %.017.lcssa = phi i64 [ 0, %7 ], [ %.1.us, %31 ], [ %.1, %88 ]
  ret i64 %.017.lcssa
}